ccopy_reg
_reconstructor
p0
(cpandas.core.frame
DataFrame
p1
c__builtin__
object
p2
Ntp3
Rp4
(dp5
S'_metadata'
p6
(lp7
sS'_typ'
p8
S'dataframe'
p9
sS'_data'
p10
g0
(cpandas.core.internals
BlockManager
p11
g2
Ntp12
Rp13
((lp14
cpandas.core.indexes.base
_new_Index
p15
(cpandas.core.indexes.base
Index
p16
(dp17
S'data'
p18
cnumpy.core.multiarray
_reconstruct
p19
(cnumpy
ndarray
p20
(I0
tp21
S'b'
p22
tp23
Rp24
(I1
(I29
tp25
cnumpy
dtype
p26
(S'O8'
p27
I0
I1
tp28
Rp29
(I3
S'|'
p30
NNNI-1
I-1
I63
tp31
bI00
(lp32
S'index'
p33
aS'0'
p34
aS'1'
p35
aS'2'
p36
aS'3'
p37
aS'4'
p38
aS'5'
p39
aS'6'
p40
aS'7'
p41
aS'8'
p42
aS'9'
p43
aS'10'
p44
aS'11'
p45
aS'12'
p46
aS'13'
p47
aS'14'
p48
aS'15'
p49
aS'16'
p50
aS'17'
p51
aS'18'
p52
aS'19'
p53
aS'20'
p54
aS'21'
p55
aS'22'
p56
aS'23'
p57
aS'24'
p58
aS'iv'
p59
aS'treated'
p60
aS'outcome'
p61
atp62
bsS'name'
p63
Nstp64
Rp65
ag15
(cpandas.core.indexes.numeric
Int64Index
p66
(dp67
g18
g19
(g20
(I0
tp68
g22
tp69
Rp70
(I1
(I12
tp71
g26
(S'i8'
p72
I0
I1
tp73
Rp74
(I3
S'<'
p75
NNNI-1
I-1
I0
tp76
bI00
S'\x07\x00\x00\x00\x00\x00\x00\x00\x01\x00\x00\x00\x00\x00\x00\x00\x03\x00\x00\x00\x00\x00\x00\x00\t\x00\x00\x00\x00\x00\x00\x00\x00\x00\x00\x00\x00\x00\x00\x00\x0c\x00\x00\x00\x00\x00\x00\x00\x04\x00\x00\x00\x00\x00\x00\x00\x0b\x00\x00\x00\x00\x00\x00\x00\n\x00\x00\x00\x00\x00\x00\x00\x06\x00\x00\x00\x00\x00\x00\x00\r\x00\x00\x00\x00\x00\x00\x00\x05\x00\x00\x00\x00\x00\x00\x00'
p77
tp78
bsg63
Nstp79
Rp80
a(lp81
g0
(cpandas.core.arrays.categorical
Categorical
p82
g2
Ntp83
Rp84
(dp85
S'_codes'
p86
g19
(g20
(I0
tp87
g22
tp88
Rp89
(I1
(I12
tp90
g26
(S'i1'
p91
I0
I1
tp92
Rp93
(I3
S'|'
p94
NNNI-1
I-1
I0
tp95
bI00
S'\x02\x03\x01\x01\x01\x02\x01\x01\x01\x01\x02\x02'
p96
tp97
bsS'_dtype'
p98
g0
(cpandas.core.dtypes.dtypes
CategoricalDtype
p99
g2
Ntp100
Rp101
(dp102
S'ordered'
p103
I01
sS'categories'
p104
g15
(g16
(dp105
g18
g19
(g20
(I0
tp106
g22
tp107
Rp108
(I1
(I10
tp109
g29
I00
(lp110
g35
ag36
ag37
ag38
ag39
ag40
ag41
ag42
ag43
aS'10'
p111
atp112
bsg63
Nstp113
Rp114
sbsbag0
(g82
g2
Ntp115
Rp116
(dp117
g86
g19
(g20
(I0
tp118
g22
tp119
Rp120
(I1
(I12
tp121
g93
I00
S'\x01\x01\x00\x00\x00\x00\x00\x00\x00\x00\x01\x01'
p122
tp123
bsg98
g0
(g99
g2
Ntp124
Rp125
(dp126
g103
I01
sg104
g15
(g16
(dp127
g18
g19
(g20
(I0
tp128
g22
tp129
Rp130
(I1
(I5
tp131
g29
I00
(lp132
g35
ag36
ag37
ag38
ag39
atp133
bsg63
Nstp134
Rp135
sbsbag0
(g82
g2
Ntp136
Rp137
(dp138
g86
g19
(g20
(I0
tp139
g22
tp140
Rp141
(I1
(I12
tp142
g93
I00
S'\x03\x03\x03\x03\x03\x03\x03\x04\x03\x03\x03\x03'
p143
tp144
bsg98
g0
(g99
g2
Ntp145
Rp146
(dp147
g103
I01
sg104
g15
(g16
(dp148
g18
g19
(g20
(I0
tp149
g22
tp150
Rp151
(I1
(I5
tp152
g29
I00
(lp153
g35
ag36
ag37
ag38
ag39
atp154
bsg63
Nstp155
Rp156
sbsbag0
(g82
g2
Ntp157
Rp158
(dp159
g86
g19
(g20
(I0
tp160
g22
tp161
Rp162
(I1
(I12
tp163
g93
I00
S'\x00\x00\x00\x00\x00\x00\x00\x00\x00\x00\x00\x00'
p164
tp165
bsg98
g0
(g99
g2
Ntp166
Rp167
(dp168
g103
I01
sg104
g15
(g16
(dp169
g18
g19
(g20
(I0
tp170
g22
tp171
Rp172
(I1
(I5
tp173
g29
I00
(lp174
g35
ag36
ag37
ag38
ag39
atp175
bsg63
Nstp176
Rp177
sbsbag0
(g82
g2
Ntp178
Rp179
(dp180
g86
g19
(g20
(I0
tp181
g22
tp182
Rp183
(I1
(I12
tp184
g93
I00
S'\x01\x01\x01\x00\x01\x01\x01\x00\x00\x00\x01\x01'
p185
tp186
bsg98
g0
(g99
g2
Ntp187
Rp188
(dp189
g103
I01
sg104
g15
(g16
(dp190
g18
g19
(g20
(I0
tp191
g22
tp192
Rp193
(I1
(I5
tp194
g29
I00
(lp195
g35
ag36
ag37
ag38
ag39
atp196
bsg63
Nstp197
Rp198
sbsbag0
(g82
g2
Ntp199
Rp200
(dp201
g86
g19
(g20
(I0
tp202
g22
tp203
Rp204
(I1
(I12
tp205
g93
I00
S'\x01\x01\x01\x01\x01\x01\x01\x01\x01\x01\x01\x01'
p206
tp207
bsg98
g0
(g99
g2
Ntp208
Rp209
(dp210
g103
I01
sg104
g15
(g16
(dp211
g18
g19
(g20
(I0
tp212
g22
tp213
Rp214
(I1
(I5
tp215
g29
I00
(lp216
g35
ag36
ag37
ag38
ag39
atp217
bsg63
Nstp218
Rp219
sbsbag0
(g82
g2
Ntp220
Rp221
(dp222
g86
g19
(g20
(I0
tp223
g22
tp224
Rp225
(I1
(I12
tp226
g93
I00
S'\x02\x02\x02\x03\x02\x02\x02\x03\x03\x03\x02\x02'
p227
tp228
bsg98
g0
(g99
g2
Ntp229
Rp230
(dp231
g103
I01
sg104
g15
(g16
(dp232
g18
g19
(g20
(I0
tp233
g22
tp234
Rp235
(I1
(I5
tp236
g29
I00
(lp237
g35
ag36
ag37
ag38
ag39
atp238
bsg63
Nstp239
Rp240
sbsbag0
(g82
g2
Ntp241
Rp242
(dp243
g86
g19
(g20
(I0
tp244
g22
tp245
Rp246
(I1
(I12
tp247
g93
I00
S'\x03\x03\x03\x02\x03\x03\x03\x02\x02\x02\x03\x03'
p248
tp249
bsg98
g0
(g99
g2
Ntp250
Rp251
(dp252
g103
I01
sg104
g15
(g16
(dp253
g18
g19
(g20
(I0
tp254
g22
tp255
Rp256
(I1
(I5
tp257
g29
I00
(lp258
g35
ag36
ag37
ag38
ag39
atp259
bsg63
Nstp260
Rp261
sbsbag0
(g82
g2
Ntp262
Rp263
(dp264
g86
g19
(g20
(I0
tp265
g22
tp266
Rp267
(I1
(I12
tp268
g93
I00
S'\x02\x02\x02\x02\x02\x02\x02\x02\x02\x02\x02\x02'
p269
tp270
bsg98
g0
(g99
g2
Ntp271
Rp272
(dp273
g103
I01
sg104
g15
(g16
(dp274
g18
g19
(g20
(I0
tp275
g22
tp276
Rp277
(I1
(I5
tp278
g29
I00
(lp279
g35
ag36
ag37
ag38
ag39
atp280
bsg63
Nstp281
Rp282
sbsbag0
(g82
g2
Ntp283
Rp284
(dp285
g86
g19
(g20
(I0
tp286
g22
tp287
Rp288
(I1
(I12
tp289
g93
I00
S'\x00\x00\x00\x01\x00\x00\x00\x01\x01\x01\x00\x00'
p290
tp291
bsg98
g0
(g99
g2
Ntp292
Rp293
(dp294
g103
I01
sg104
g15
(g16
(dp295
g18
g19
(g20
(I0
tp296
g22
tp297
Rp298
(I1
(I5
tp299
g29
I00
(lp300
g35
ag36
ag37
ag38
ag39
atp301
bsg63
Nstp302
Rp303
sbsbag0
(g82
g2
Ntp304
Rp305
(dp306
g86
g19
(g20
(I0
tp307
g22
tp308
Rp309
(I1
(I12
tp310
g93
I00
S'\x00\x00\x00\x01\x00\x00\x00\x01\x01\x01\x00\x00'
p311
tp312
bsg98
g0
(g99
g2
Ntp313
Rp314
(dp315
g103
I01
sg104
g15
(g16
(dp316
g18
g19
(g20
(I0
tp317
g22
tp318
Rp319
(I1
(I5
tp320
g29
I00
(lp321
g35
ag36
ag37
ag38
ag39
atp322
bsg63
Nstp323
Rp324
sbsbag0
(g82
g2
Ntp325
Rp326
(dp327
g86
g19
(g20
(I0
tp328
g22
tp329
Rp330
(I1
(I12
tp331
g93
I00
S'\x00\x00\x00\x01\x00\x00\x00\x01\x01\x01\x00\x00'
p332
tp333
bsg98
g0
(g99
g2
Ntp334
Rp335
(dp336
g103
I01
sg104
g15
(g16
(dp337
g18
g19
(g20
(I0
tp338
g22
tp339
Rp340
(I1
(I5
tp341
g29
I00
(lp342
g35
ag36
ag37
ag38
ag39
atp343
bsg63
Nstp344
Rp345
sbsbag0
(g82
g2
Ntp346
Rp347
(dp348
g86
g19
(g20
(I0
tp349
g22
tp350
Rp351
(I1
(I12
tp352
g93
I00
S'\x01\x01\x01\x00\x01\x01\x01\x00\x00\x00\x01\x01'
p353
tp354
bsg98
g0
(g99
g2
Ntp355
Rp356
(dp357
g103
I01
sg104
g15
(g16
(dp358
g18
g19
(g20
(I0
tp359
g22
tp360
Rp361
(I1
(I5
tp362
g29
I00
(lp363
g35
ag36
ag37
ag38
ag39
atp364
bsg63
Nstp365
Rp366
sbsbag0
(g82
g2
Ntp367
Rp368
(dp369
g86
g19
(g20
(I0
tp370
g22
tp371
Rp372
(I1
(I12
tp373
g93
I00
S'\x03\x03\x03\x03\x03\x03\x03\x03\x03\x03\x03\x03'
p374
tp375
bsg98
g0
(g99
g2
Ntp376
Rp377
(dp378
g103
I01
sg104
g15
(g16
(dp379
g18
g19
(g20
(I0
tp380
g22
tp381
Rp382
(I1
(I5
tp383
g29
I00
(lp384
g35
ag36
ag37
ag38
ag39
atp385
bsg63
Nstp386
Rp387
sbsbag0
(g82
g2
Ntp388
Rp389
(dp390
g86
g19
(g20
(I0
tp391
g22
tp392
Rp393
(I1
(I12
tp394
g93
I00
S'\x01\x01\x01\x00\x01\x01\x01\x00\x00\x00\x01\x01'
p395
tp396
bsg98
g0
(g99
g2
Ntp397
Rp398
(dp399
g103
I01
sg104
g15
(g16
(dp400
g18
g19
(g20
(I0
tp401
g22
tp402
Rp403
(I1
(I5
tp404
g29
I00
(lp405
g35
ag36
ag37
ag38
ag39
atp406
bsg63
Nstp407
Rp408
sbsbag0
(g82
g2
Ntp409
Rp410
(dp411
g86
g19
(g20
(I0
tp412
g22
tp413
Rp414
(I1
(I12
tp415
g93
I00
S'\x03\x03\x03\x02\x03\x03\x03\x02\x02\x02\x03\x03'
p416
tp417
bsg98
g0
(g99
g2
Ntp418
Rp419
(dp420
g103
I01
sg104
g15
(g16
(dp421
g18
g19
(g20
(I0
tp422
g22
tp423
Rp424
(I1
(I5
tp425
g29
I00
(lp426
g35
ag36
ag37
ag38
ag39
atp427
bsg63
Nstp428
Rp429
sbsbag0
(g82
g2
Ntp430
Rp431
(dp432
g86
g19
(g20
(I0
tp433
g22
tp434
Rp435
(I1
(I12
tp436
g93
I00
S'\x02\x02\x02\x02\x02\x02\x02\x02\x02\x02\x02\x02'
p437
tp438
bsg98
g0
(g99
g2
Ntp439
Rp440
(dp441
g103
I01
sg104
g15
(g16
(dp442
g18
g19
(g20
(I0
tp443
g22
tp444
Rp445
(I1
(I5
tp446
g29
I00
(lp447
g35
ag36
ag37
ag38
ag39
atp448
bsg63
Nstp449
Rp450
sbsbag0
(g82
g2
Ntp451
Rp452
(dp453
g86
g19
(g20
(I0
tp454
g22
tp455
Rp456
(I1
(I12
tp457
g93
I00
S'\x02\x02\x02\x02\x02\x02\x02\x02\x02\x02\x02\x02'
p458
tp459
bsg98
g0
(g99
g2
Ntp460
Rp461
(dp462
g103
I01
sg104
g15
(g16
(dp463
g18
g19
(g20
(I0
tp464
g22
tp465
Rp466
(I1
(I5
tp467
g29
I00
(lp468
g35
ag36
ag37
ag38
ag39
atp469
bsg63
Nstp470
Rp471
sbsbag0
(g82
g2
Ntp472
Rp473
(dp474
g86
g19
(g20
(I0
tp475
g22
tp476
Rp477
(I1
(I12
tp478
g93
I00
S'\x03\x03\x03\x02\x03\x03\x03\x02\x02\x02\x03\x03'
p479
tp480
bsg98
g0
(g99
g2
Ntp481
Rp482
(dp483
g103
I01
sg104
g15
(g16
(dp484
g18
g19
(g20
(I0
tp485
g22
tp486
Rp487
(I1
(I5
tp488
g29
I00
(lp489
g35
ag36
ag37
ag38
ag39
atp490
bsg63
Nstp491
Rp492
sbsbag0
(g82
g2
Ntp493
Rp494
(dp495
g86
g19
(g20
(I0
tp496
g22
tp497
Rp498
(I1
(I12
tp499
g93
I00
S'\x03\x03\x03\x03\x03\x03\x03\x03\x03\x03\x03\x03'
p500
tp501
bsg98
g0
(g99
g2
Ntp502
Rp503
(dp504
g103
I01
sg104
g15
(g16
(dp505
g18
g19
(g20
(I0
tp506
g22
tp507
Rp508
(I1
(I5
tp509
g29
I00
(lp510
g35
ag36
ag37
ag38
ag39
atp511
bsg63
Nstp512
Rp513
sbsbag0
(g82
g2
Ntp514
Rp515
(dp516
g86
g19
(g20
(I0
tp517
g22
tp518
Rp519
(I1
(I12
tp520
g93
I00
S'\x02\x02\x02\x02\x02\x02\x02\x02\x02\x02\x02\x02'
p521
tp522
bsg98
g0
(g99
g2
Ntp523
Rp524
(dp525
g103
I01
sg104
g15
(g16
(dp526
g18
g19
(g20
(I0
tp527
g22
tp528
Rp529
(I1
(I5
tp530
g29
I00
(lp531
g35
ag36
ag37
ag38
ag39
atp532
bsg63
Nstp533
Rp534
sbsbag0
(g82
g2
Ntp535
Rp536
(dp537
g86
g19
(g20
(I0
tp538
g22
tp539
Rp540
(I1
(I12
tp541
g93
I00
S'\x02\x02\x02\x02\x02\x02\x02\x02\x02\x02\x02\x02'
p542
tp543
bsg98
g0
(g99
g2
Ntp544
Rp545
(dp546
g103
I01
sg104
g15
(g16
(dp547
g18
g19
(g20
(I0
tp548
g22
tp549
Rp550
(I1
(I5
tp551
g29
I00
(lp552
g35
ag36
ag37
ag38
ag39
atp553
bsg63
Nstp554
Rp555
sbsbag0
(g82
g2
Ntp556
Rp557
(dp558
g86
g19
(g20
(I0
tp559
g22
tp560
Rp561
(I1
(I12
tp562
g93
I00
S'\x02\x02\x02\x02\x02\x02\x02\x02\x02\x02\x02\x02'
p563
tp564
bsg98
g0
(g99
g2
Ntp565
Rp566
(dp567
g103
I01
sg104
g15
(g16
(dp568
g18
g19
(g20
(I0
tp569
g22
tp570
Rp571
(I1
(I5
tp572
g29
I00
(lp573
g35
ag36
ag37
ag38
ag39
atp574
bsg63
Nstp575
Rp576
sbsbag0
(g82
g2
Ntp577
Rp578
(dp579
g86
g19
(g20
(I0
tp580
g22
tp581
Rp582
(I1
(I12
tp583
g93
I00
S'\x02\x02\x02\x02\x02\x02\x02\x02\x02\x02\x02\x02'
p584
tp585
bsg98
g0
(g99
g2
Ntp586
Rp587
(dp588
g103
I01
sg104
g15
(g16
(dp589
g18
g19
(g20
(I0
tp590
g22
tp591
Rp592
(I1
(I5
tp593
g29
I00
(lp594
g35
ag36
ag37
ag38
ag39
atp595
bsg63
Nstp596
Rp597
sbsbag19
(g20
(I0
tp598
g22
tp599
Rp600
(I1
(I3
I12
tp601
g26
(S'f4'
p602
I0
I1
tp603
Rp604
(I3
S'<'
p605
NNNI-1
I-1
I0
tp606
bI00
S'\x00\x00\x00\x00\x00\x00\x80?\x00\x00\x80?\x00\x00\x80?\x00\x00\x80?\x00\x00\x80?\x00\x00\x80?\x00\x00\x80?\x00\x00\x80?\x00\x00\x00\x00\x00\x00\x80?\x00\x00\x80?\x00\x00\x00\x00\x00\x00\x80?\x00\x00\x00\x00\x00\x00\x00\x00\x00\x00\x80?\x00\x00\x80?\x00\x00\x00\x00\x00\x00\x00\x00\x00\x00\x80?\x00\x00\x00\x00\x00\x00\x80?\x00\x00\x80?\xa4KB?(%9?\x13mK?8$R?\xf8cD?\xdctE?"`M?\xde)]?\x8d\xa4K?naJ?\x9enM?\xc8\xd87?'
p607
tp608
bag19
(g20
(I0
tp609
g22
tp610
Rp611
(I1
(I1
I12
tp612
g74
I00
S'\x05\x0f\x00\x00\x00\x00\x00\x00\x8f\x0e\x00\x00\x00\x00\x00\x00\xb4\x0e\x00\x00\x00\x00\x00\x00Q\x0f\x00\x00\x00\x00\x00\x00E\x0e\x00\x00\x00\x00\x00\x00\x19\x10\x00\x00\x00\x00\x00\x00\xd6\x0e\x00\x00\x00\x00\x00\x00\xfb\x0f\x00\x00\x00\x00\x00\x00W\x0f\x00\x00\x00\x00\x00\x00\x03\x0f\x00\x00\x00\x00\x00\x00/\x10\x00\x00\x00\x00\x00\x00\xd8\x0e\x00\x00\x00\x00\x00\x00'
p613
tp614
bag19
(g20
(I0
tp615
g22
tp616
Rp617
(I1
(I1
I12
tp618
g29
I00
(lp619
S'Lyon, 7e arrondissement'
p620
aS'Lyon, 7e arrondissement'
p621
aS'Lyon, 6e arrondissement'
p622
aS'Sainte-Foy-l\xc3\xa8s-Lyon'
p623
aS'Lyon, 6e arrondissement'
p624
aS'Lyon, 6e arrondissement'
p625
aS'Lyon, 6e arrondissement'
p626
aS'Sainte-Foy-l\xc3\xa8s-Lyon'
p627
aS'Sainte-Foy-l\xc3\xa8s-Lyon'
p628
aS'Sainte-Foy-l\xc3\xa8s-Lyon'
p629
aS'Lyon, 7e arrondissement'
p630
aS'Lyon, 7e arrondissement'
p631
atp632
ba(lp633
g15
(g16
(dp634
g18
g19
(g20
(I0
tp635
g22
tp636
Rp637
(I1
(I1
tp638
g29
I00
(lp639
g35
atp640
bsg63
Nstp641
Rp642
ag15
(g16
(dp643
g18
g19
(g20
(I0
tp644
g22
tp645
Rp646
(I1
(I1
tp647
g29
I00
(lp648
g36
atp649
bsg63
Nstp650
Rp651
ag15
(g16
(dp652
g18
g19
(g20
(I0
tp653
g22
tp654
Rp655
(I1
(I1
tp656
g29
I00
(lp657
g37
atp658
bsg63
Nstp659
Rp660
ag15
(g16
(dp661
g18
g19
(g20
(I0
tp662
g22
tp663
Rp664
(I1
(I1
tp665
g29
I00
(lp666
g38
atp667
bsg63
Nstp668
Rp669
ag15
(g16
(dp670
g18
g19
(g20
(I0
tp671
g22
tp672
Rp673
(I1
(I1
tp674
g29
I00
(lp675
g39
atp676
bsg63
Nstp677
Rp678
ag15
(g16
(dp679
g18
g19
(g20
(I0
tp680
g22
tp681
Rp682
(I1
(I1
tp683
g29
I00
(lp684
g40
atp685
bsg63
Nstp686
Rp687
ag15
(g16
(dp688
g18
g19
(g20
(I0
tp689
g22
tp690
Rp691
(I1
(I1
tp692
g29
I00
(lp693
g41
atp694
bsg63
Nstp695
Rp696
ag15
(g16
(dp697
g18
g19
(g20
(I0
tp698
g22
tp699
Rp700
(I1
(I1
tp701
g29
I00
(lp702
g42
atp703
bsg63
Nstp704
Rp705
ag15
(g16
(dp706
g18
g19
(g20
(I0
tp707
g22
tp708
Rp709
(I1
(I1
tp710
g29
I00
(lp711
g43
atp712
bsg63
Nstp713
Rp714
ag15
(g16
(dp715
g18
g19
(g20
(I0
tp716
g22
tp717
Rp718
(I1
(I1
tp719
g29
I00
(lp720
g44
atp721
bsg63
Nstp722
Rp723
ag15
(g16
(dp724
g18
g19
(g20
(I0
tp725
g22
tp726
Rp727
(I1
(I1
tp728
g29
I00
(lp729
g45
atp730
bsg63
Nstp731
Rp732
ag15
(g16
(dp733
g18
g19
(g20
(I0
tp734
g22
tp735
Rp736
(I1
(I1
tp737
g29
I00
(lp738
g46
atp739
bsg63
Nstp740
Rp741
ag15
(g16
(dp742
g18
g19
(g20
(I0
tp743
g22
tp744
Rp745
(I1
(I1
tp746
g29
I00
(lp747
g47
atp748
bsg63
Nstp749
Rp750
ag15
(g16
(dp751
g18
g19
(g20
(I0
tp752
g22
tp753
Rp754
(I1
(I1
tp755
g29
I00
(lp756
g48
atp757
bsg63
Nstp758
Rp759
ag15
(g16
(dp760
g18
g19
(g20
(I0
tp761
g22
tp762
Rp763
(I1
(I1
tp764
g29
I00
(lp765
g49
atp766
bsg63
Nstp767
Rp768
ag15
(g16
(dp769
g18
g19
(g20
(I0
tp770
g22
tp771
Rp772
(I1
(I1
tp773
g29
I00
(lp774
g50
atp775
bsg63
Nstp776
Rp777
ag15
(g16
(dp778
g18
g19
(g20
(I0
tp779
g22
tp780
Rp781
(I1
(I1
tp782
g29
I00
(lp783
g51
atp784
bsg63
Nstp785
Rp786
ag15
(g16
(dp787
g18
g19
(g20
(I0
tp788
g22
tp789
Rp790
(I1
(I1
tp791
g29
I00
(lp792
g52
atp793
bsg63
Nstp794
Rp795
ag15
(g16
(dp796
g18
g19
(g20
(I0
tp797
g22
tp798
Rp799
(I1
(I1
tp800
g29
I00
(lp801
g53
atp802
bsg63
Nstp803
Rp804
ag15
(g16
(dp805
g18
g19
(g20
(I0
tp806
g22
tp807
Rp808
(I1
(I1
tp809
g29
I00
(lp810
g54
atp811
bsg63
Nstp812
Rp813
ag15
(g16
(dp814
g18
g19
(g20
(I0
tp815
g22
tp816
Rp817
(I1
(I1
tp818
g29
I00
(lp819
g55
atp820
bsg63
Nstp821
Rp822
ag15
(g16
(dp823
g18
g19
(g20
(I0
tp824
g22
tp825
Rp826
(I1
(I1
tp827
g29
I00
(lp828
g56
atp829
bsg63
Nstp830
Rp831
ag15
(g16
(dp832
g18
g19
(g20
(I0
tp833
g22
tp834
Rp835
(I1
(I1
tp836
g29
I00
(lp837
g57
atp838
bsg63
Nstp839
Rp840
ag15
(g16
(dp841
g18
g19
(g20
(I0
tp842
g22
tp843
Rp844
(I1
(I1
tp845
g29
I00
(lp846
g58
atp847
bsg63
Nstp848
Rp849
ag15
(g16
(dp850
g18
g19
(g20
(I0
tp851
g22
tp852
Rp853
(I1
(I3
tp854
g29
I00
(lp855
g59
ag60
ag61
atp856
bsg63
Nstp857
Rp858
ag15
(g16
(dp859
g18
g19
(g20
(I0
tp860
g22
tp861
Rp862
(I1
(I1
tp863
g29
I00
(lp864
g33
atp865
bsg63
Nstp866
Rp867
ag15
(g16
(dp868
g18
g19
(g20
(I0
tp869
g22
tp870
Rp871
(I1
(I1
tp872
g29
I00
(lp873
g34
atp874
bsg63
Nstp875
Rp876
a(dp877
S'0.14.1'
p878
(dp879
S'axes'
p880
g14
sS'blocks'
p881
(lp882
(dp883
S'mgr_locs'
p884
c__builtin__
slice
p885
(I2
I3
I1
tp886
Rp887
sS'values'
p888
g84
sa(dp889
g884
g885
(I3
I4
I1
tp890
Rp891
sg888
g116
sa(dp892
g884
g885
(I4
I5
I1
tp893
Rp894
sg888
g137
sa(dp895
g884
g885
(I5
I6
I1
tp896
Rp897
sg888
g158
sa(dp898
g884
g885
(I6
I7
I1
tp899
Rp900
sg888
g179
sa(dp901
g884
g885
(I7
I8
I1
tp902
Rp903
sg888
g200
sa(dp904
g884
g885
(I8
I9
I1
tp905
Rp906
sg888
g221
sa(dp907
g884
g885
(I9
I10
I1
tp908
Rp909
sg888
g242
sa(dp910
g884
g885
(I10
I11
I1
tp911
Rp912
sg888
g263
sa(dp913
g884
g885
(I11
I12
I1
tp914
Rp915
sg888
g284
sa(dp916
g884
g885
(I12
I13
I1
tp917
Rp918
sg888
g305
sa(dp919
g884
g885
(I13
I14
I1
tp920
Rp921
sg888
g326
sa(dp922
g884
g885
(I14
I15
I1
tp923
Rp924
sg888
g347
sa(dp925
g884
g885
(I15
I16
I1
tp926
Rp927
sg888
g368
sa(dp928
g884
g885
(I16
I17
I1
tp929
Rp930
sg888
g389
sa(dp931
g884
g885
(I17
I18
I1
tp932
Rp933
sg888
g410
sa(dp934
g884
g885
(I18
I19
I1
tp935
Rp936
sg888
g431
sa(dp937
g884
g885
(I19
I20
I1
tp938
Rp939
sg888
g452
sa(dp940
g884
g885
(I20
I21
I1
tp941
Rp942
sg888
g473
sa(dp943
g884
g885
(I21
I22
I1
tp944
Rp945
sg888
g494
sa(dp946
g884
g885
(I22
I23
I1
tp947
Rp948
sg888
g515
sa(dp949
g884
g885
(I23
I24
I1
tp950
Rp951
sg888
g536
sa(dp952
g884
g885
(I24
I25
I1
tp953
Rp954
sg888
g557
sa(dp955
g884
g885
(I25
I26
I1
tp956
Rp957
sg888
g578
sa(dp958
g884
g885
(I26
I29
I1
tp959
Rp960
sg888
g600
sa(dp961
g884
g885
(I0
I1
I1
tp962
Rp963
sg888
g611
sa(dp964
g884
g885
(I1
I2
I1
tp965
Rp966
sg888
g617
sasstp967
bsb.