ccopy_reg
_reconstructor
p0
(cpandas.core.frame
DataFrame
p1
c__builtin__
object
p2
Ntp3
Rp4
(dp5
S'_metadata'
p6
(lp7
sS'_typ'
p8
S'dataframe'
p9
sS'_data'
p10
g0
(cpandas.core.internals
BlockManager
p11
g2
Ntp12
Rp13
((lp14
cpandas.core.indexes.base
_new_Index
p15
(cpandas.core.indexes.base
Index
p16
(dp17
S'data'
p18
cnumpy.core.multiarray
_reconstruct
p19
(cnumpy
ndarray
p20
(I0
tp21
S'b'
p22
tp23
Rp24
(I1
(I29
tp25
cnumpy
dtype
p26
(S'O8'
p27
I0
I1
tp28
Rp29
(I3
S'|'
p30
NNNI-1
I-1
I63
tp31
bI00
(lp32
S'index'
p33
aS'0'
p34
aS'1'
p35
aS'2'
p36
aS'3'
p37
aS'4'
p38
aS'5'
p39
aS'6'
p40
aS'7'
p41
aS'8'
p42
aS'9'
p43
aS'10'
p44
aS'11'
p45
aS'12'
p46
aS'13'
p47
aS'14'
p48
aS'15'
p49
aS'16'
p50
aS'17'
p51
aS'18'
p52
aS'19'
p53
aS'20'
p54
aS'21'
p55
aS'22'
p56
aS'23'
p57
aS'24'
p58
aS'iv'
p59
aS'treated'
p60
aS'outcome'
p61
atp62
bsS'name'
p63
Nstp64
Rp65
ag15
(cpandas.core.indexes.numeric
Int64Index
p66
(dp67
g18
g19
(g20
(I0
tp68
g22
tp69
Rp70
(I1
(I14
tp71
g26
(S'i8'
p72
I0
I1
tp73
Rp74
(I3
S'<'
p75
NNNI-1
I-1
I0
tp76
bI00
S'\x01\x00\x00\x00\x00\x00\x00\x00\x0e\x00\x00\x00\x00\x00\x00\x00\x04\x00\x00\x00\x00\x00\x00\x00\x0b\x00\x00\x00\x00\x00\x00\x00\x03\x00\x00\x00\x00\x00\x00\x00\r\x00\x00\x00\x00\x00\x00\x00\n\x00\x00\x00\x00\x00\x00\x00\x07\x00\x00\x00\x00\x00\x00\x00\t\x00\x00\x00\x00\x00\x00\x00\x00\x00\x00\x00\x00\x00\x00\x00\x0c\x00\x00\x00\x00\x00\x00\x00\x06\x00\x00\x00\x00\x00\x00\x00\x0f\x00\x00\x00\x00\x00\x00\x00\x05\x00\x00\x00\x00\x00\x00\x00'
p77
tp78
bsg63
Nstp79
Rp80
a(lp81
g0
(cpandas.core.arrays.categorical
Categorical
p82
g2
Ntp83
Rp84
(dp85
S'_codes'
p86
g19
(g20
(I0
tp87
g22
tp88
Rp89
(I1
(I14
tp90
g26
(S'i1'
p91
I0
I1
tp92
Rp93
(I3
S'|'
p94
NNNI-1
I-1
I0
tp95
bI00
S'\x03\x02\x02\x02\x05\x02\x02\x02\x02\x02\x02\x03\x03\x03'
p96
tp97
bsS'_dtype'
p98
g0
(cpandas.core.dtypes.dtypes
CategoricalDtype
p99
g2
Ntp100
Rp101
(dp102
S'ordered'
p103
I01
sS'categories'
p104
g15
(g16
(dp105
g18
g19
(g20
(I0
tp106
g22
tp107
Rp108
(I1
(I10
tp109
g29
I00
(lp110
g35
ag36
ag37
ag38
ag39
ag40
ag41
ag42
ag43
aS'10'
p111
atp112
bsg63
Nstp113
Rp114
sbsbag0
(g82
g2
Ntp115
Rp116
(dp117
g86
g19
(g20
(I0
tp118
g22
tp119
Rp120
(I1
(I14
tp121
g93
I00
S'\x00\x00\x00\x00\x00\x00\x00\x00\x00\x00\x00\x00\x00\x00'
p122
tp123
bsg98
g0
(g99
g2
Ntp124
Rp125
(dp126
g103
I01
sg104
g15
(g16
(dp127
g18
g19
(g20
(I0
tp128
g22
tp129
Rp130
(I1
(I5
tp131
g29
I00
(lp132
g35
ag36
ag37
ag38
ag39
atp133
bsg63
Nstp134
Rp135
sbsbag0
(g82
g2
Ntp136
Rp137
(dp138
g86
g19
(g20
(I0
tp139
g22
tp140
Rp141
(I1
(I14
tp142
g93
I00
S'\x03\x03\x03\x03\x02\x03\x03\x03\x03\x03\x03\x03\x02\x02'
p143
tp144
bsg98
g0
(g99
g2
Ntp145
Rp146
(dp147
g103
I01
sg104
g15
(g16
(dp148
g18
g19
(g20
(I0
tp149
g22
tp150
Rp151
(I1
(I5
tp152
g29
I00
(lp153
g35
ag36
ag37
ag38
ag39
atp154
bsg63
Nstp155
Rp156
sbsbag0
(g82
g2
Ntp157
Rp158
(dp159
g86
g19
(g20
(I0
tp160
g22
tp161
Rp162
(I1
(I14
tp163
g93
I00
S'\x00\x00\x00\x00\x00\x00\x00\x00\x00\x00\x00\x00\x00\x00'
p164
tp165
bsg98
g0
(g99
g2
Ntp166
Rp167
(dp168
g103
I01
sg104
g15
(g16
(dp169
g18
g19
(g20
(I0
tp170
g22
tp171
Rp172
(I1
(I5
tp173
g29
I00
(lp174
g35
ag36
ag37
ag38
ag39
atp175
bsg63
Nstp176
Rp177
sbsbag0
(g82
g2
Ntp178
Rp179
(dp180
g86
g19
(g20
(I0
tp181
g22
tp182
Rp183
(I1
(I14
tp184
g93
I00
S'\x01\x01\x01\x01\x01\x01\x01\x01\x01\x01\x01\x01\x01\x01'
p185
tp186
bsg98
g0
(g99
g2
Ntp187
Rp188
(dp189
g103
I01
sg104
g15
(g16
(dp190
g18
g19
(g20
(I0
tp191
g22
tp192
Rp193
(I1
(I5
tp194
g29
I00
(lp195
g35
ag36
ag37
ag38
ag39
atp196
bsg63
Nstp197
Rp198
sbsbag0
(g82
g2
Ntp199
Rp200
(dp201
g86
g19
(g20
(I0
tp202
g22
tp203
Rp204
(I1
(I14
tp205
g93
I00
S'\x02\x02\x02\x02\x02\x02\x02\x02\x02\x02\x02\x02\x02\x02'
p206
tp207
bsg98
g0
(g99
g2
Ntp208
Rp209
(dp210
g103
I01
sg104
g15
(g16
(dp211
g18
g19
(g20
(I0
tp212
g22
tp213
Rp214
(I1
(I5
tp215
g29
I00
(lp216
g35
ag36
ag37
ag38
ag39
atp217
bsg63
Nstp218
Rp219
sbsbag0
(g82
g2
Ntp220
Rp221
(dp222
g86
g19
(g20
(I0
tp223
g22
tp224
Rp225
(I1
(I14
tp226
g93
I00
S'\x03\x03\x03\x03\x03\x03\x03\x03\x03\x03\x03\x03\x03\x03'
p227
tp228
bsg98
g0
(g99
g2
Ntp229
Rp230
(dp231
g103
I01
sg104
g15
(g16
(dp232
g18
g19
(g20
(I0
tp233
g22
tp234
Rp235
(I1
(I5
tp236
g29
I00
(lp237
g35
ag36
ag37
ag38
ag39
atp238
bsg63
Nstp239
Rp240
sbsbag0
(g82
g2
Ntp241
Rp242
(dp243
g86
g19
(g20
(I0
tp244
g22
tp245
Rp246
(I1
(I14
tp247
g93
I00
S'\x02\x02\x02\x02\x02\x02\x02\x02\x02\x02\x02\x02\x02\x02'
p248
tp249
bsg98
g0
(g99
g2
Ntp250
Rp251
(dp252
g103
I01
sg104
g15
(g16
(dp253
g18
g19
(g20
(I0
tp254
g22
tp255
Rp256
(I1
(I5
tp257
g29
I00
(lp258
g35
ag36
ag37
ag38
ag39
atp259
bsg63
Nstp260
Rp261
sbsbag0
(g82
g2
Ntp262
Rp263
(dp264
g86
g19
(g20
(I0
tp265
g22
tp266
Rp267
(I1
(I14
tp268
g93
I00
S'\x02\x02\x02\x02\x02\x02\x02\x02\x02\x02\x02\x02\x02\x02'
p269
tp270
bsg98
g0
(g99
g2
Ntp271
Rp272
(dp273
g103
I01
sg104
g15
(g16
(dp274
g18
g19
(g20
(I0
tp275
g22
tp276
Rp277
(I1
(I5
tp278
g29
I00
(lp279
g35
ag36
ag37
ag38
ag39
atp280
bsg63
Nstp281
Rp282
sbsbag0
(g82
g2
Ntp283
Rp284
(dp285
g86
g19
(g20
(I0
tp286
g22
tp287
Rp288
(I1
(I14
tp289
g93
I00
S'\x01\x01\x01\x01\x01\x01\x01\x01\x01\x01\x01\x01\x01\x01'
p290
tp291
bsg98
g0
(g99
g2
Ntp292
Rp293
(dp294
g103
I01
sg104
g15
(g16
(dp295
g18
g19
(g20
(I0
tp296
g22
tp297
Rp298
(I1
(I5
tp299
g29
I00
(lp300
g35
ag36
ag37
ag38
ag39
atp301
bsg63
Nstp302
Rp303
sbsbag0
(g82
g2
Ntp304
Rp305
(dp306
g86
g19
(g20
(I0
tp307
g22
tp308
Rp309
(I1
(I14
tp310
g93
I00
S'\x00\x00\x00\x00\x00\x00\x00\x00\x00\x00\x00\x00\x00\x00'
p311
tp312
bsg98
g0
(g99
g2
Ntp313
Rp314
(dp315
g103
I01
sg104
g15
(g16
(dp316
g18
g19
(g20
(I0
tp317
g22
tp318
Rp319
(I1
(I5
tp320
g29
I00
(lp321
g35
ag36
ag37
ag38
ag39
atp322
bsg63
Nstp323
Rp324
sbsbag0
(g82
g2
Ntp325
Rp326
(dp327
g86
g19
(g20
(I0
tp328
g22
tp329
Rp330
(I1
(I14
tp331
g93
I00
S'\x01\x01\x01\x01\x01\x01\x01\x01\x01\x01\x01\x01\x01\x01'
p332
tp333
bsg98
g0
(g99
g2
Ntp334
Rp335
(dp336
g103
I01
sg104
g15
(g16
(dp337
g18
g19
(g20
(I0
tp338
g22
tp339
Rp340
(I1
(I5
tp341
g29
I00
(lp342
g35
ag36
ag37
ag38
ag39
atp343
bsg63
Nstp344
Rp345
sbsbag0
(g82
g2
Ntp346
Rp347
(dp348
g86
g19
(g20
(I0
tp349
g22
tp350
Rp351
(I1
(I14
tp352
g93
I00
S'\x01\x01\x01\x01\x01\x01\x01\x01\x01\x01\x01\x01\x01\x01'
p353
tp354
bsg98
g0
(g99
g2
Ntp355
Rp356
(dp357
g103
I01
sg104
g15
(g16
(dp358
g18
g19
(g20
(I0
tp359
g22
tp360
Rp361
(I1
(I5
tp362
g29
I00
(lp363
g35
ag36
ag37
ag38
ag39
atp364
bsg63
Nstp365
Rp366
sbsbag0
(g82
g2
Ntp367
Rp368
(dp369
g86
g19
(g20
(I0
tp370
g22
tp371
Rp372
(I1
(I14
tp373
g93
I00
S'\x02\x02\x02\x02\x02\x02\x02\x02\x02\x02\x02\x02\x02\x02'
p374
tp375
bsg98
g0
(g99
g2
Ntp376
Rp377
(dp378
g103
I01
sg104
g15
(g16
(dp379
g18
g19
(g20
(I0
tp380
g22
tp381
Rp382
(I1
(I5
tp383
g29
I00
(lp384
g35
ag36
ag37
ag38
ag39
atp385
bsg63
Nstp386
Rp387
sbsbag0
(g82
g2
Ntp388
Rp389
(dp390
g86
g19
(g20
(I0
tp391
g22
tp392
Rp393
(I1
(I14
tp394
g93
I00
S'\x01\x01\x01\x01\x01\x01\x01\x01\x01\x01\x01\x01\x01\x01'
p395
tp396
bsg98
g0
(g99
g2
Ntp397
Rp398
(dp399
g103
I01
sg104
g15
(g16
(dp400
g18
g19
(g20
(I0
tp401
g22
tp402
Rp403
(I1
(I5
tp404
g29
I00
(lp405
g35
ag36
ag37
ag38
ag39
atp406
bsg63
Nstp407
Rp408
sbsbag0
(g82
g2
Ntp409
Rp410
(dp411
g86
g19
(g20
(I0
tp412
g22
tp413
Rp414
(I1
(I14
tp415
g93
I00
S'\x03\x03\x03\x03\x03\x03\x03\x03\x03\x03\x03\x03\x03\x03'
p416
tp417
bsg98
g0
(g99
g2
Ntp418
Rp419
(dp420
g103
I01
sg104
g15
(g16
(dp421
g18
g19
(g20
(I0
tp422
g22
tp423
Rp424
(I1
(I5
tp425
g29
I00
(lp426
g35
ag36
ag37
ag38
ag39
atp427
bsg63
Nstp428
Rp429
sbsbag0
(g82
g2
Ntp430
Rp431
(dp432
g86
g19
(g20
(I0
tp433
g22
tp434
Rp435
(I1
(I14
tp436
g93
I00
S'\x02\x02\x02\x02\x02\x02\x02\x02\x02\x02\x02\x02\x02\x02'
p437
tp438
bsg98
g0
(g99
g2
Ntp439
Rp440
(dp441
g103
I01
sg104
g15
(g16
(dp442
g18
g19
(g20
(I0
tp443
g22
tp444
Rp445
(I1
(I5
tp446
g29
I00
(lp447
g35
ag36
ag37
ag38
ag39
atp448
bsg63
Nstp449
Rp450
sbsbag0
(g82
g2
Ntp451
Rp452
(dp453
g86
g19
(g20
(I0
tp454
g22
tp455
Rp456
(I1
(I14
tp457
g93
I00
S'\x02\x02\x02\x02\x02\x02\x02\x02\x02\x02\x02\x02\x02\x02'
p458
tp459
bsg98
g0
(g99
g2
Ntp460
Rp461
(dp462
g103
I01
sg104
g15
(g16
(dp463
g18
g19
(g20
(I0
tp464
g22
tp465
Rp466
(I1
(I5
tp467
g29
I00
(lp468
g35
ag36
ag37
ag38
ag39
atp469
bsg63
Nstp470
Rp471
sbsbag0
(g82
g2
Ntp472
Rp473
(dp474
g86
g19
(g20
(I0
tp475
g22
tp476
Rp477
(I1
(I14
tp478
g93
I00
S'\x03\x03\x03\x03\x03\x03\x03\x03\x03\x03\x03\x03\x03\x03'
p479
tp480
bsg98
g0
(g99
g2
Ntp481
Rp482
(dp483
g103
I01
sg104
g15
(g16
(dp484
g18
g19
(g20
(I0
tp485
g22
tp486
Rp487
(I1
(I5
tp488
g29
I00
(lp489
g35
ag36
ag37
ag38
ag39
atp490
bsg63
Nstp491
Rp492
sbsbag0
(g82
g2
Ntp493
Rp494
(dp495
g86
g19
(g20
(I0
tp496
g22
tp497
Rp498
(I1
(I14
tp499
g93
I00
S'\x03\x03\x03\x03\x03\x03\x03\x03\x03\x03\x03\x03\x03\x03'
p500
tp501
bsg98
g0
(g99
g2
Ntp502
Rp503
(dp504
g103
I01
sg104
g15
(g16
(dp505
g18
g19
(g20
(I0
tp506
g22
tp507
Rp508
(I1
(I5
tp509
g29
I00
(lp510
g35
ag36
ag37
ag38
ag39
atp511
bsg63
Nstp512
Rp513
sbsbag0
(g82
g2
Ntp514
Rp515
(dp516
g86
g19
(g20
(I0
tp517
g22
tp518
Rp519
(I1
(I14
tp520
g93
I00
S'\x02\x02\x02\x02\x02\x02\x02\x02\x02\x02\x02\x02\x02\x02'
p521
tp522
bsg98
g0
(g99
g2
Ntp523
Rp524
(dp525
g103
I01
sg104
g15
(g16
(dp526
g18
g19
(g20
(I0
tp527
g22
tp528
Rp529
(I1
(I5
tp530
g29
I00
(lp531
g35
ag36
ag37
ag38
ag39
atp532
bsg63
Nstp533
Rp534
sbsbag0
(g82
g2
Ntp535
Rp536
(dp537
g86
g19
(g20
(I0
tp538
g22
tp539
Rp540
(I1
(I14
tp541
g93
I00
S'\x02\x02\x02\x02\x02\x02\x02\x02\x02\x02\x02\x02\x02\x02'
p542
tp543
bsg98
g0
(g99
g2
Ntp544
Rp545
(dp546
g103
I01
sg104
g15
(g16
(dp547
g18
g19
(g20
(I0
tp548
g22
tp549
Rp550
(I1
(I5
tp551
g29
I00
(lp552
g35
ag36
ag37
ag38
ag39
atp553
bsg63
Nstp554
Rp555
sbsbag0
(g82
g2
Ntp556
Rp557
(dp558
g86
g19
(g20
(I0
tp559
g22
tp560
Rp561
(I1
(I14
tp562
g93
I00
S'\x02\x02\x02\x02\x02\x02\x02\x02\x02\x02\x02\x02\x02\x02'
p563
tp564
bsg98
g0
(g99
g2
Ntp565
Rp566
(dp567
g103
I01
sg104
g15
(g16
(dp568
g18
g19
(g20
(I0
tp569
g22
tp570
Rp571
(I1
(I5
tp572
g29
I00
(lp573
g35
ag36
ag37
ag38
ag39
atp574
bsg63
Nstp575
Rp576
sbsbag0
(g82
g2
Ntp577
Rp578
(dp579
g86
g19
(g20
(I0
tp580
g22
tp581
Rp582
(I1
(I14
tp583
g93
I00
S'\x02\x02\x02\x02\x02\x02\x02\x02\x02\x02\x02\x02\x02\x02'
p584
tp585
bsg98
g0
(g99
g2
Ntp586
Rp587
(dp588
g103
I01
sg104
g15
(g16
(dp589
g18
g19
(g20
(I0
tp590
g22
tp591
Rp592
(I1
(I5
tp593
g29
I00
(lp594
g35
ag36
ag37
ag38
ag39
atp595
bsg63
Nstp596
Rp597
sbsbag19
(g20
(I0
tp598
g22
tp599
Rp600
(I1
(I3
I14
tp601
g26
(S'f4'
p602
I0
I1
tp603
Rp604
(I3
S'<'
p605
NNNI-1
I-1
I0
tp606
bI00
S'\x00\x00\x80?\x00\x00\x00\x00\x00\x00\x80?\x00\x00\x00\x00\x00\x00\x80?\x00\x00\x80?\x00\x00\x00\x00\x00\x00\x80?\x00\x00\x80?\x00\x00\x80?\x00\x00\x80?\x00\x00\x80?\x00\x00\x80?\x00\x00\x80?\x00\x00\x80?\x00\x00\x00\x00\x00\x00\x00\x00\x00\x00\x00\x00\x00\x00\x80?\x00\x00\x80?\x00\x00\x00\x00\x00\x00\x80?\x00\x00\x00\x00\x00\x00\x80?\x00\x00\x80?\x00\x00\x80?\x00\x00\x80?\x00\x00\x00\x00@^A?\xcaZ\x15?333?_\xd0\x17?\xd9{Y?S1\x04?\xf7\xcf\xf7>\x97c$?\x17\xff(?\x159\x04?8\xde-?\xa51\x0b?\xb7\x96E?\xebIH?'
p607
tp608
bag19
(g20
(I0
tp609
g22
tp610
Rp611
(I1
(I1
I14
tp612
g74
I00
S'\xc9\x11\x00\x00\x00\x00\x00\x00\x1d\x12\x00\x00\x00\x00\x00\x00\xd4\x11\x00\x00\x00\x00\x00\x00\xfb\x11\x00\x00\x00\x00\x00\x00\xce\x11\x00\x00\x00\x00\x00\x00\r\x12\x00\x00\x00\x00\x00\x00\xeb\x11\x00\x00\x00\x00\x00\x00\xdc\x11\x00\x00\x00\x00\x00\x00\xe1\x11\x00\x00\x00\x00\x00\x00\xb0\x11\x00\x00\x00\x00\x00\x00\xfe\x11\x00\x00\x00\x00\x00\x00\xd7\x11\x00\x00\x00\x00\x00\x00 \x12\x00\x00\x00\x00\x00\x00\xd6\x11\x00\x00\x00\x00\x00\x00'
p613
tp614
bag19
(g20
(I0
tp615
g22
tp616
Rp617
(I1
(I1
I14
tp618
g29
I00
(lp619
S'Marseille, 6e arrondissement'
p620
aS'Marseille, 6e arrondissement'
p621
aS'Marseille, 6e arrondissement'
p622
aS'Marseille, 5e arrondissement'
p623
aS'Marseille, 3e arrondissement'
p624
aS'Marseille, 4e arrondissement'
p625
aS'Marseille, 4e arrondissement'
p626
aS'Marseille, 5e arrondissement'
p627
aS'Marseille, 6e arrondissement'
p628
aS'Marseille, 4e arrondissement'
p629
aS'Marseille, 6e arrondissement'
p630
aS'Marseille, 4e arrondissement'
p631
aS'Marseille, 3e arrondissement'
p632
aS'Marseille, 3e arrondissement'
p633
atp634
ba(lp635
g15
(g16
(dp636
g18
g19
(g20
(I0
tp637
g22
tp638
Rp639
(I1
(I1
tp640
g29
I00
(lp641
g35
atp642
bsg63
Nstp643
Rp644
ag15
(g16
(dp645
g18
g19
(g20
(I0
tp646
g22
tp647
Rp648
(I1
(I1
tp649
g29
I00
(lp650
g36
atp651
bsg63
Nstp652
Rp653
ag15
(g16
(dp654
g18
g19
(g20
(I0
tp655
g22
tp656
Rp657
(I1
(I1
tp658
g29
I00
(lp659
g37
atp660
bsg63
Nstp661
Rp662
ag15
(g16
(dp663
g18
g19
(g20
(I0
tp664
g22
tp665
Rp666
(I1
(I1
tp667
g29
I00
(lp668
g38
atp669
bsg63
Nstp670
Rp671
ag15
(g16
(dp672
g18
g19
(g20
(I0
tp673
g22
tp674
Rp675
(I1
(I1
tp676
g29
I00
(lp677
g39
atp678
bsg63
Nstp679
Rp680
ag15
(g16
(dp681
g18
g19
(g20
(I0
tp682
g22
tp683
Rp684
(I1
(I1
tp685
g29
I00
(lp686
g40
atp687
bsg63
Nstp688
Rp689
ag15
(g16
(dp690
g18
g19
(g20
(I0
tp691
g22
tp692
Rp693
(I1
(I1
tp694
g29
I00
(lp695
g41
atp696
bsg63
Nstp697
Rp698
ag15
(g16
(dp699
g18
g19
(g20
(I0
tp700
g22
tp701
Rp702
(I1
(I1
tp703
g29
I00
(lp704
g42
atp705
bsg63
Nstp706
Rp707
ag15
(g16
(dp708
g18
g19
(g20
(I0
tp709
g22
tp710
Rp711
(I1
(I1
tp712
g29
I00
(lp713
g43
atp714
bsg63
Nstp715
Rp716
ag15
(g16
(dp717
g18
g19
(g20
(I0
tp718
g22
tp719
Rp720
(I1
(I1
tp721
g29
I00
(lp722
g44
atp723
bsg63
Nstp724
Rp725
ag15
(g16
(dp726
g18
g19
(g20
(I0
tp727
g22
tp728
Rp729
(I1
(I1
tp730
g29
I00
(lp731
g45
atp732
bsg63
Nstp733
Rp734
ag15
(g16
(dp735
g18
g19
(g20
(I0
tp736
g22
tp737
Rp738
(I1
(I1
tp739
g29
I00
(lp740
g46
atp741
bsg63
Nstp742
Rp743
ag15
(g16
(dp744
g18
g19
(g20
(I0
tp745
g22
tp746
Rp747
(I1
(I1
tp748
g29
I00
(lp749
g47
atp750
bsg63
Nstp751
Rp752
ag15
(g16
(dp753
g18
g19
(g20
(I0
tp754
g22
tp755
Rp756
(I1
(I1
tp757
g29
I00
(lp758
g48
atp759
bsg63
Nstp760
Rp761
ag15
(g16
(dp762
g18
g19
(g20
(I0
tp763
g22
tp764
Rp765
(I1
(I1
tp766
g29
I00
(lp767
g49
atp768
bsg63
Nstp769
Rp770
ag15
(g16
(dp771
g18
g19
(g20
(I0
tp772
g22
tp773
Rp774
(I1
(I1
tp775
g29
I00
(lp776
g50
atp777
bsg63
Nstp778
Rp779
ag15
(g16
(dp780
g18
g19
(g20
(I0
tp781
g22
tp782
Rp783
(I1
(I1
tp784
g29
I00
(lp785
g51
atp786
bsg63
Nstp787
Rp788
ag15
(g16
(dp789
g18
g19
(g20
(I0
tp790
g22
tp791
Rp792
(I1
(I1
tp793
g29
I00
(lp794
g52
atp795
bsg63
Nstp796
Rp797
ag15
(g16
(dp798
g18
g19
(g20
(I0
tp799
g22
tp800
Rp801
(I1
(I1
tp802
g29
I00
(lp803
g53
atp804
bsg63
Nstp805
Rp806
ag15
(g16
(dp807
g18
g19
(g20
(I0
tp808
g22
tp809
Rp810
(I1
(I1
tp811
g29
I00
(lp812
g54
atp813
bsg63
Nstp814
Rp815
ag15
(g16
(dp816
g18
g19
(g20
(I0
tp817
g22
tp818
Rp819
(I1
(I1
tp820
g29
I00
(lp821
g55
atp822
bsg63
Nstp823
Rp824
ag15
(g16
(dp825
g18
g19
(g20
(I0
tp826
g22
tp827
Rp828
(I1
(I1
tp829
g29
I00
(lp830
g56
atp831
bsg63
Nstp832
Rp833
ag15
(g16
(dp834
g18
g19
(g20
(I0
tp835
g22
tp836
Rp837
(I1
(I1
tp838
g29
I00
(lp839
g57
atp840
bsg63
Nstp841
Rp842
ag15
(g16
(dp843
g18
g19
(g20
(I0
tp844
g22
tp845
Rp846
(I1
(I1
tp847
g29
I00
(lp848
g58
atp849
bsg63
Nstp850
Rp851
ag15
(g16
(dp852
g18
g19
(g20
(I0
tp853
g22
tp854
Rp855
(I1
(I3
tp856
g29
I00
(lp857
g59
ag60
ag61
atp858
bsg63
Nstp859
Rp860
ag15
(g16
(dp861
g18
g19
(g20
(I0
tp862
g22
tp863
Rp864
(I1
(I1
tp865
g29
I00
(lp866
g33
atp867
bsg63
Nstp868
Rp869
ag15
(g16
(dp870
g18
g19
(g20
(I0
tp871
g22
tp872
Rp873
(I1
(I1
tp874
g29
I00
(lp875
g34
atp876
bsg63
Nstp877
Rp878
a(dp879
S'0.14.1'
p880
(dp881
S'axes'
p882
g14
sS'blocks'
p883
(lp884
(dp885
S'mgr_locs'
p886
c__builtin__
slice
p887
(I2
I3
I1
tp888
Rp889
sS'values'
p890
g84
sa(dp891
g886
g887
(I3
I4
I1
tp892
Rp893
sg890
g116
sa(dp894
g886
g887
(I4
I5
I1
tp895
Rp896
sg890
g137
sa(dp897
g886
g887
(I5
I6
I1
tp898
Rp899
sg890
g158
sa(dp900
g886
g887
(I6
I7
I1
tp901
Rp902
sg890
g179
sa(dp903
g886
g887
(I7
I8
I1
tp904
Rp905
sg890
g200
sa(dp906
g886
g887
(I8
I9
I1
tp907
Rp908
sg890
g221
sa(dp909
g886
g887
(I9
I10
I1
tp910
Rp911
sg890
g242
sa(dp912
g886
g887
(I10
I11
I1
tp913
Rp914
sg890
g263
sa(dp915
g886
g887
(I11
I12
I1
tp916
Rp917
sg890
g284
sa(dp918
g886
g887
(I12
I13
I1
tp919
Rp920
sg890
g305
sa(dp921
g886
g887
(I13
I14
I1
tp922
Rp923
sg890
g326
sa(dp924
g886
g887
(I14
I15
I1
tp925
Rp926
sg890
g347
sa(dp927
g886
g887
(I15
I16
I1
tp928
Rp929
sg890
g368
sa(dp930
g886
g887
(I16
I17
I1
tp931
Rp932
sg890
g389
sa(dp933
g886
g887
(I17
I18
I1
tp934
Rp935
sg890
g410
sa(dp936
g886
g887
(I18
I19
I1
tp937
Rp938
sg890
g431
sa(dp939
g886
g887
(I19
I20
I1
tp940
Rp941
sg890
g452
sa(dp942
g886
g887
(I20
I21
I1
tp943
Rp944
sg890
g473
sa(dp945
g886
g887
(I21
I22
I1
tp946
Rp947
sg890
g494
sa(dp948
g886
g887
(I22
I23
I1
tp949
Rp950
sg890
g515
sa(dp951
g886
g887
(I23
I24
I1
tp952
Rp953
sg890
g536
sa(dp954
g886
g887
(I24
I25
I1
tp955
Rp956
sg890
g557
sa(dp957
g886
g887
(I25
I26
I1
tp958
Rp959
sg890
g578
sa(dp960
g886
g887
(I26
I29
I1
tp961
Rp962
sg890
g600
sa(dp963
g886
g887
(I0
I1
I1
tp964
Rp965
sg890
g611
sa(dp966
g886
g887
(I1
I2
I1
tp967
Rp968
sg890
g617
sasstp969
bsb.