ccopy_reg
_reconstructor
p0
(cpandas.core.frame
DataFrame
p1
c__builtin__
object
p2
Ntp3
Rp4
(dp5
S'_metadata'
p6
(lp7
sS'_typ'
p8
S'dataframe'
p9
sS'_data'
p10
g0
(cpandas.core.internals
BlockManager
p11
g2
Ntp12
Rp13
((lp14
cpandas.core.indexes.base
_new_Index
p15
(cpandas.core.indexes.base
Index
p16
(dp17
S'data'
p18
cnumpy.core.multiarray
_reconstruct
p19
(cnumpy
ndarray
p20
(I0
tp21
S'b'
p22
tp23
Rp24
(I1
(I29
tp25
cnumpy
dtype
p26
(S'O8'
p27
I0
I1
tp28
Rp29
(I3
S'|'
p30
NNNI-1
I-1
I63
tp31
bI00
(lp32
S'index'
p33
aS'0'
p34
aS'1'
p35
aS'2'
p36
aS'3'
p37
aS'4'
p38
aS'5'
p39
aS'6'
p40
aS'7'
p41
aS'8'
p42
aS'9'
p43
aS'10'
p44
aS'11'
p45
aS'12'
p46
aS'13'
p47
aS'14'
p48
aS'15'
p49
aS'16'
p50
aS'17'
p51
aS'18'
p52
aS'19'
p53
aS'20'
p54
aS'21'
p55
aS'22'
p56
aS'23'
p57
aS'24'
p58
aS'iv'
p59
aS'treated'
p60
aS'outcome'
p61
atp62
bsS'name'
p63
Nstp64
Rp65
ag15
(cpandas.core.indexes.numeric
Int64Index
p66
(dp67
g18
g19
(g20
(I0
tp68
g22
tp69
Rp70
(I1
(I16
tp71
g26
(S'i8'
p72
I0
I1
tp73
Rp74
(I3
S'<'
p75
NNNI-1
I-1
I0
tp76
bI00
S'\x00\x00\x00\x00\x00\x00\x00\x00\x01\x00\x00\x00\x00\x00\x00\x00\x02\x00\x00\x00\x00\x00\x00\x00\x03\x00\x00\x00\x00\x00\x00\x00\x04\x00\x00\x00\x00\x00\x00\x00\x05\x00\x00\x00\x00\x00\x00\x00\x06\x00\x00\x00\x00\x00\x00\x00\x07\x00\x00\x00\x00\x00\x00\x00\x08\x00\x00\x00\x00\x00\x00\x00\t\x00\x00\x00\x00\x00\x00\x00\n\x00\x00\x00\x00\x00\x00\x00\x0b\x00\x00\x00\x00\x00\x00\x00\x0c\x00\x00\x00\x00\x00\x00\x00\r\x00\x00\x00\x00\x00\x00\x00\x0e\x00\x00\x00\x00\x00\x00\x00\x0f\x00\x00\x00\x00\x00\x00\x00'
p77
tp78
bsg63
Nstp79
Rp80
a(lp81
g0
(cpandas.core.arrays.categorical
Categorical
p82
g2
Ntp83
Rp84
(dp85
S'_codes'
p86
g19
(g20
(I0
tp87
g22
tp88
Rp89
(I1
(I16
tp90
g26
(S'i1'
p91
I0
I1
tp92
Rp93
(I3
S'|'
p94
NNNI-1
I-1
I0
tp95
bI00
S'\x02\x03\x04\x05\x02\x03\x03\x02\x02\x02\x02\x02\x02\x02\x02\x03'
p96
tp97
bsS'_dtype'
p98
g0
(cpandas.core.dtypes.dtypes
CategoricalDtype
p99
g2
Ntp100
Rp101
(dp102
S'ordered'
p103
I01
sS'categories'
p104
g15
(g16
(dp105
g18
g19
(g20
(I0
tp106
g22
tp107
Rp108
(I1
(I10
tp109
g29
I00
(lp110
g35
ag36
ag37
ag38
ag39
ag40
ag41
ag42
ag43
aS'10'
p111
atp112
bsg63
Nstp113
Rp114
sbsbag0
(g82
g2
Ntp115
Rp116
(dp117
g86
g19
(g20
(I0
tp118
g22
tp119
Rp120
(I1
(I16
tp121
g93
I00
S'\x00\x00\x00\x00\x00\x00\x00\x00\x00\x00\x00\x00\x00\x00\x00\x00'
p122
tp123
bsg98
g0
(g99
g2
Ntp124
Rp125
(dp126
g103
I01
sg104
g15
(g16
(dp127
g18
g19
(g20
(I0
tp128
g22
tp129
Rp130
(I1
(I5
tp131
g29
I00
(lp132
g35
ag36
ag37
ag38
ag39
atp133
bsg63
Nstp134
Rp135
sbsbag0
(g82
g2
Ntp136
Rp137
(dp138
g86
g19
(g20
(I0
tp139
g22
tp140
Rp141
(I1
(I16
tp142
g93
I00
S'\x03\x03\x02\x02\x03\x02\x03\x03\x03\x03\x03\x03\x03\x03\x03\x02'
p143
tp144
bsg98
g0
(g99
g2
Ntp145
Rp146
(dp147
g103
I01
sg104
g15
(g16
(dp148
g18
g19
(g20
(I0
tp149
g22
tp150
Rp151
(I1
(I5
tp152
g29
I00
(lp153
g35
ag36
ag37
ag38
ag39
atp154
bsg63
Nstp155
Rp156
sbsbag0
(g82
g2
Ntp157
Rp158
(dp159
g86
g19
(g20
(I0
tp160
g22
tp161
Rp162
(I1
(I16
tp163
g93
I00
S'\x00\x00\x00\x00\x00\x00\x00\x00\x00\x00\x00\x00\x00\x00\x00\x00'
p164
tp165
bsg98
g0
(g99
g2
Ntp166
Rp167
(dp168
g103
I01
sg104
g15
(g16
(dp169
g18
g19
(g20
(I0
tp170
g22
tp171
Rp172
(I1
(I5
tp173
g29
I00
(lp174
g35
ag36
ag37
ag38
ag39
atp175
bsg63
Nstp176
Rp177
sbsbag0
(g82
g2
Ntp178
Rp179
(dp180
g86
g19
(g20
(I0
tp181
g22
tp182
Rp183
(I1
(I16
tp184
g93
I00
S'\x01\x01\x01\x01\x01\x01\x01\x01\x01\x01\x01\x01\x01\x01\x01\x01'
p185
tp186
bsg98
g0
(g99
g2
Ntp187
Rp188
(dp189
g103
I01
sg104
g15
(g16
(dp190
g18
g19
(g20
(I0
tp191
g22
tp192
Rp193
(I1
(I5
tp194
g29
I00
(lp195
g35
ag36
ag37
ag38
ag39
atp196
bsg63
Nstp197
Rp198
sbsbag0
(g82
g2
Ntp199
Rp200
(dp201
g86
g19
(g20
(I0
tp202
g22
tp203
Rp204
(I1
(I16
tp205
g93
I00
S'\x02\x02\x02\x02\x02\x02\x02\x02\x02\x02\x02\x02\x02\x02\x02\x02'
p206
tp207
bsg98
g0
(g99
g2
Ntp208
Rp209
(dp210
g103
I01
sg104
g15
(g16
(dp211
g18
g19
(g20
(I0
tp212
g22
tp213
Rp214
(I1
(I5
tp215
g29
I00
(lp216
g35
ag36
ag37
ag38
ag39
atp217
bsg63
Nstp218
Rp219
sbsbag0
(g82
g2
Ntp220
Rp221
(dp222
g86
g19
(g20
(I0
tp223
g22
tp224
Rp225
(I1
(I16
tp226
g93
I00
S'\x03\x03\x03\x03\x03\x03\x03\x03\x03\x03\x03\x03\x03\x03\x03\x03'
p227
tp228
bsg98
g0
(g99
g2
Ntp229
Rp230
(dp231
g103
I01
sg104
g15
(g16
(dp232
g18
g19
(g20
(I0
tp233
g22
tp234
Rp235
(I1
(I5
tp236
g29
I00
(lp237
g35
ag36
ag37
ag38
ag39
atp238
bsg63
Nstp239
Rp240
sbsbag0
(g82
g2
Ntp241
Rp242
(dp243
g86
g19
(g20
(I0
tp244
g22
tp245
Rp246
(I1
(I16
tp247
g93
I00
S'\x02\x02\x02\x02\x02\x02\x02\x02\x02\x02\x02\x02\x02\x02\x02\x02'
p248
tp249
bsg98
g0
(g99
g2
Ntp250
Rp251
(dp252
g103
I01
sg104
g15
(g16
(dp253
g18
g19
(g20
(I0
tp254
g22
tp255
Rp256
(I1
(I5
tp257
g29
I00
(lp258
g35
ag36
ag37
ag38
ag39
atp259
bsg63
Nstp260
Rp261
sbsbag0
(g82
g2
Ntp262
Rp263
(dp264
g86
g19
(g20
(I0
tp265
g22
tp266
Rp267
(I1
(I16
tp268
g93
I00
S'\x02\x02\x02\x02\x02\x02\x02\x02\x02\x02\x02\x02\x02\x02\x02\x02'
p269
tp270
bsg98
g0
(g99
g2
Ntp271
Rp272
(dp273
g103
I01
sg104
g15
(g16
(dp274
g18
g19
(g20
(I0
tp275
g22
tp276
Rp277
(I1
(I5
tp278
g29
I00
(lp279
g35
ag36
ag37
ag38
ag39
atp280
bsg63
Nstp281
Rp282
sbsbag0
(g82
g2
Ntp283
Rp284
(dp285
g86
g19
(g20
(I0
tp286
g22
tp287
Rp288
(I1
(I16
tp289
g93
I00
S'\x01\x01\x01\x01\x01\x01\x01\x01\x01\x01\x01\x01\x01\x01\x01\x01'
p290
tp291
bsg98
g0
(g99
g2
Ntp292
Rp293
(dp294
g103
I01
sg104
g15
(g16
(dp295
g18
g19
(g20
(I0
tp296
g22
tp297
Rp298
(I1
(I5
tp299
g29
I00
(lp300
g35
ag36
ag37
ag38
ag39
atp301
bsg63
Nstp302
Rp303
sbsbag0
(g82
g2
Ntp304
Rp305
(dp306
g86
g19
(g20
(I0
tp307
g22
tp308
Rp309
(I1
(I16
tp310
g93
I00
S'\x00\x00\x00\x00\x00\x00\x00\x00\x00\x00\x00\x00\x00\x00\x00\x00'
p311
tp312
bsg98
g0
(g99
g2
Ntp313
Rp314
(dp315
g103
I01
sg104
g15
(g16
(dp316
g18
g19
(g20
(I0
tp317
g22
tp318
Rp319
(I1
(I5
tp320
g29
I00
(lp321
g35
ag36
ag37
ag38
ag39
atp322
bsg63
Nstp323
Rp324
sbsbag0
(g82
g2
Ntp325
Rp326
(dp327
g86
g19
(g20
(I0
tp328
g22
tp329
Rp330
(I1
(I16
tp331
g93
I00
S'\x01\x01\x01\x01\x01\x01\x01\x01\x01\x01\x01\x01\x01\x01\x01\x01'
p332
tp333
bsg98
g0
(g99
g2
Ntp334
Rp335
(dp336
g103
I01
sg104
g15
(g16
(dp337
g18
g19
(g20
(I0
tp338
g22
tp339
Rp340
(I1
(I5
tp341
g29
I00
(lp342
g35
ag36
ag37
ag38
ag39
atp343
bsg63
Nstp344
Rp345
sbsbag0
(g82
g2
Ntp346
Rp347
(dp348
g86
g19
(g20
(I0
tp349
g22
tp350
Rp351
(I1
(I16
tp352
g93
I00
S'\x01\x01\x01\x01\x01\x01\x01\x01\x01\x01\x01\x01\x01\x01\x01\x01'
p353
tp354
bsg98
g0
(g99
g2
Ntp355
Rp356
(dp357
g103
I01
sg104
g15
(g16
(dp358
g18
g19
(g20
(I0
tp359
g22
tp360
Rp361
(I1
(I5
tp362
g29
I00
(lp363
g35
ag36
ag37
ag38
ag39
atp364
bsg63
Nstp365
Rp366
sbsbag0
(g82
g2
Ntp367
Rp368
(dp369
g86
g19
(g20
(I0
tp370
g22
tp371
Rp372
(I1
(I16
tp373
g93
I00
S'\x02\x02\x02\x02\x02\x02\x02\x02\x02\x02\x02\x02\x02\x02\x02\x02'
p374
tp375
bsg98
g0
(g99
g2
Ntp376
Rp377
(dp378
g103
I01
sg104
g15
(g16
(dp379
g18
g19
(g20
(I0
tp380
g22
tp381
Rp382
(I1
(I5
tp383
g29
I00
(lp384
g35
ag36
ag37
ag38
ag39
atp385
bsg63
Nstp386
Rp387
sbsbag0
(g82
g2
Ntp388
Rp389
(dp390
g86
g19
(g20
(I0
tp391
g22
tp392
Rp393
(I1
(I16
tp394
g93
I00
S'\x01\x01\x01\x01\x01\x01\x01\x01\x01\x01\x01\x01\x01\x01\x01\x01'
p395
tp396
bsg98
g0
(g99
g2
Ntp397
Rp398
(dp399
g103
I01
sg104
g15
(g16
(dp400
g18
g19
(g20
(I0
tp401
g22
tp402
Rp403
(I1
(I5
tp404
g29
I00
(lp405
g35
ag36
ag37
ag38
ag39
atp406
bsg63
Nstp407
Rp408
sbsbag0
(g82
g2
Ntp409
Rp410
(dp411
g86
g19
(g20
(I0
tp412
g22
tp413
Rp414
(I1
(I16
tp415
g93
I00
S'\x03\x03\x03\x03\x03\x03\x03\x03\x03\x03\x03\x03\x03\x03\x03\x03'
p416
tp417
bsg98
g0
(g99
g2
Ntp418
Rp419
(dp420
g103
I01
sg104
g15
(g16
(dp421
g18
g19
(g20
(I0
tp422
g22
tp423
Rp424
(I1
(I5
tp425
g29
I00
(lp426
g35
ag36
ag37
ag38
ag39
atp427
bsg63
Nstp428
Rp429
sbsbag0
(g82
g2
Ntp430
Rp431
(dp432
g86
g19
(g20
(I0
tp433
g22
tp434
Rp435
(I1
(I16
tp436
g93
I00
S'\x02\x02\x02\x02\x02\x02\x02\x02\x02\x02\x02\x02\x02\x02\x02\x02'
p437
tp438
bsg98
g0
(g99
g2
Ntp439
Rp440
(dp441
g103
I01
sg104
g15
(g16
(dp442
g18
g19
(g20
(I0
tp443
g22
tp444
Rp445
(I1
(I5
tp446
g29
I00
(lp447
g35
ag36
ag37
ag38
ag39
atp448
bsg63
Nstp449
Rp450
sbsbag0
(g82
g2
Ntp451
Rp452
(dp453
g86
g19
(g20
(I0
tp454
g22
tp455
Rp456
(I1
(I16
tp457
g93
I00
S'\x02\x02\x02\x02\x02\x02\x02\x02\x02\x02\x02\x02\x02\x02\x02\x02'
p458
tp459
bsg98
g0
(g99
g2
Ntp460
Rp461
(dp462
g103
I01
sg104
g15
(g16
(dp463
g18
g19
(g20
(I0
tp464
g22
tp465
Rp466
(I1
(I5
tp467
g29
I00
(lp468
g35
ag36
ag37
ag38
ag39
atp469
bsg63
Nstp470
Rp471
sbsbag0
(g82
g2
Ntp472
Rp473
(dp474
g86
g19
(g20
(I0
tp475
g22
tp476
Rp477
(I1
(I16
tp478
g93
I00
S'\x03\x03\x03\x03\x03\x03\x03\x03\x03\x03\x03\x03\x03\x03\x03\x03'
p479
tp480
bsg98
g0
(g99
g2
Ntp481
Rp482
(dp483
g103
I01
sg104
g15
(g16
(dp484
g18
g19
(g20
(I0
tp485
g22
tp486
Rp487
(I1
(I5
tp488
g29
I00
(lp489
g35
ag36
ag37
ag38
ag39
atp490
bsg63
Nstp491
Rp492
sbsbag0
(g82
g2
Ntp493
Rp494
(dp495
g86
g19
(g20
(I0
tp496
g22
tp497
Rp498
(I1
(I16
tp499
g93
I00
S'\x03\x03\x03\x03\x03\x03\x03\x03\x03\x03\x03\x03\x03\x03\x03\x03'
p500
tp501
bsg98
g0
(g99
g2
Ntp502
Rp503
(dp504
g103
I01
sg104
g15
(g16
(dp505
g18
g19
(g20
(I0
tp506
g22
tp507
Rp508
(I1
(I5
tp509
g29
I00
(lp510
g35
ag36
ag37
ag38
ag39
atp511
bsg63
Nstp512
Rp513
sbsbag0
(g82
g2
Ntp514
Rp515
(dp516
g86
g19
(g20
(I0
tp517
g22
tp518
Rp519
(I1
(I16
tp520
g93
I00
S'\x02\x02\x02\x02\x02\x02\x02\x02\x02\x02\x02\x02\x02\x02\x02\x02'
p521
tp522
bsg98
g0
(g99
g2
Ntp523
Rp524
(dp525
g103
I01
sg104
g15
(g16
(dp526
g18
g19
(g20
(I0
tp527
g22
tp528
Rp529
(I1
(I5
tp530
g29
I00
(lp531
g35
ag36
ag37
ag38
ag39
atp532
bsg63
Nstp533
Rp534
sbsbag0
(g82
g2
Ntp535
Rp536
(dp537
g86
g19
(g20
(I0
tp538
g22
tp539
Rp540
(I1
(I16
tp541
g93
I00
S'\x02\x02\x02\x02\x02\x02\x02\x02\x02\x02\x02\x02\x02\x02\x02\x02'
p542
tp543
bsg98
g0
(g99
g2
Ntp544
Rp545
(dp546
g103
I01
sg104
g15
(g16
(dp547
g18
g19
(g20
(I0
tp548
g22
tp549
Rp550
(I1
(I5
tp551
g29
I00
(lp552
g35
ag36
ag37
ag38
ag39
atp553
bsg63
Nstp554
Rp555
sbsbag0
(g82
g2
Ntp556
Rp557
(dp558
g86
g19
(g20
(I0
tp559
g22
tp560
Rp561
(I1
(I16
tp562
g93
I00
S'\x02\x02\x02\x02\x02\x02\x02\x02\x02\x02\x02\x02\x02\x02\x02\x02'
p563
tp564
bsg98
g0
(g99
g2
Ntp565
Rp566
(dp567
g103
I01
sg104
g15
(g16
(dp568
g18
g19
(g20
(I0
tp569
g22
tp570
Rp571
(I1
(I5
tp572
g29
I00
(lp573
g35
ag36
ag37
ag38
ag39
atp574
bsg63
Nstp575
Rp576
sbsbag0
(g82
g2
Ntp577
Rp578
(dp579
g86
g19
(g20
(I0
tp580
g22
tp581
Rp582
(I1
(I16
tp583
g93
I00
S'\x02\x02\x02\x02\x02\x02\x02\x02\x02\x02\x02\x02\x02\x02\x02\x02'
p584
tp585
bsg98
g0
(g99
g2
Ntp586
Rp587
(dp588
g103
I01
sg104
g15
(g16
(dp589
g18
g19
(g20
(I0
tp590
g22
tp591
Rp592
(I1
(I5
tp593
g29
I00
(lp594
g35
ag36
ag37
ag38
ag39
atp595
bsg63
Nstp596
Rp597
sbsbag19
(g20
(I0
tp598
g22
tp599
Rp600
(I1
(I3
I16
tp601
g26
(S'f4'
p602
I0
I1
tp603
Rp604
(I3
S'<'
p605
NNNI-1
I-1
I0
tp606
bI00
S'\x00\x00\x80?\x00\x00\x80?\x00\x00\x00\x00\x00\x00\x80?\x00\x00\x80?\x00\x00\x80?\x00\x00\x80?\x00\x00\x80?\x00\x00\x80?\x00\x00\x80?\x00\x00\x00\x00\x00\x00\x00\x00\x00\x00\x80?\x00\x00\x80?\x00\x00\x00\x00\x00\x00\x80?\x00\x00\x80?\x00\x00\x80?\x00\x00\x00\x00\x00\x00\x80?\x00\x00\x00\x00\x00\x00\x00\x00\x00\x00\x80?\x00\x00\x80?\x00\x00\x00\x00\x00\x00\x00\x00\x00\x00\x00\x00\x00\x00\x00\x00\x00\x00\x80?\x00\x00\x80?\x00\x00\x00\x00\x00\x00\x80?m\xf2??ykE?\xab\xaa.?\xc6\x92\x1f?/\x88P?\x94\xf06?\x8cu;?\x94FQ?\x02\xb6C?vbG?\x80\xb5I?.\x05G?\xa0\x16I?\x0e\nD?\xd1\xe4F??\xe5-?'
p607
tp608
bag19
(g20
(I0
tp609
g22
tp610
Rp611
(I1
(I1
I16
tp612
g74
I00
S'\xb0\x11\x00\x00\x00\x00\x00\x00\xc9\x11\x00\x00\x00\x00\x00\x00\xca\x11\x00\x00\x00\x00\x00\x00\xce\x11\x00\x00\x00\x00\x00\x00\xd4\x11\x00\x00\x00\x00\x00\x00\xd6\x11\x00\x00\x00\x00\x00\x00\xd7\x11\x00\x00\x00\x00\x00\x00\xdc\x11\x00\x00\x00\x00\x00\x00\xe0\x11\x00\x00\x00\x00\x00\x00\xe1\x11\x00\x00\x00\x00\x00\x00\xeb\x11\x00\x00\x00\x00\x00\x00\xfb\x11\x00\x00\x00\x00\x00\x00\xfe\x11\x00\x00\x00\x00\x00\x00\r\x12\x00\x00\x00\x00\x00\x00\x1d\x12\x00\x00\x00\x00\x00\x00 \x12\x00\x00\x00\x00\x00\x00'
p613
tp614
bag19
(g20
(I0
tp615
g22
tp616
Rp617
(I1
(I1
I16
tp618
g29
I00
(lp619
S'Marseille, 4e arrondissement'
p620
aS'Marseille, 6e arrondissement'
p621
aS'Marseille, 3e arrondissement'
p622
aS'Marseille, 3e arrondissement'
p623
aS'Marseille, 6e arrondissement'
p624
aS'Marseille, 3e arrondissement'
p625
aS'Marseille, 4e arrondissement'
p626
aS'Marseille, 5e arrondissement'
p627
aS'Marseille, 4e arrondissement'
p628
aS'Marseille, 6e arrondissement'
p629
aS'Marseille, 4e arrondissement'
p630
aS'Marseille, 5e arrondissement'
p631
aS'Marseille, 6e arrondissement'
p632
aS'Marseille, 4e arrondissement'
p633
aS'Marseille, 6e arrondissement'
p634
aS'Marseille, 3e arrondissement'
p635
atp636
ba(lp637
g15
(g16
(dp638
g18
g19
(g20
(I0
tp639
g22
tp640
Rp641
(I1
(I1
tp642
g29
I00
(lp643
g35
atp644
bsg63
Nstp645
Rp646
ag15
(g16
(dp647
g18
g19
(g20
(I0
tp648
g22
tp649
Rp650
(I1
(I1
tp651
g29
I00
(lp652
g36
atp653
bsg63
Nstp654
Rp655
ag15
(g16
(dp656
g18
g19
(g20
(I0
tp657
g22
tp658
Rp659
(I1
(I1
tp660
g29
I00
(lp661
g37
atp662
bsg63
Nstp663
Rp664
ag15
(g16
(dp665
g18
g19
(g20
(I0
tp666
g22
tp667
Rp668
(I1
(I1
tp669
g29
I00
(lp670
g38
atp671
bsg63
Nstp672
Rp673
ag15
(g16
(dp674
g18
g19
(g20
(I0
tp675
g22
tp676
Rp677
(I1
(I1
tp678
g29
I00
(lp679
g39
atp680
bsg63
Nstp681
Rp682
ag15
(g16
(dp683
g18
g19
(g20
(I0
tp684
g22
tp685
Rp686
(I1
(I1
tp687
g29
I00
(lp688
g40
atp689
bsg63
Nstp690
Rp691
ag15
(g16
(dp692
g18
g19
(g20
(I0
tp693
g22
tp694
Rp695
(I1
(I1
tp696
g29
I00
(lp697
g41
atp698
bsg63
Nstp699
Rp700
ag15
(g16
(dp701
g18
g19
(g20
(I0
tp702
g22
tp703
Rp704
(I1
(I1
tp705
g29
I00
(lp706
g42
atp707
bsg63
Nstp708
Rp709
ag15
(g16
(dp710
g18
g19
(g20
(I0
tp711
g22
tp712
Rp713
(I1
(I1
tp714
g29
I00
(lp715
g43
atp716
bsg63
Nstp717
Rp718
ag15
(g16
(dp719
g18
g19
(g20
(I0
tp720
g22
tp721
Rp722
(I1
(I1
tp723
g29
I00
(lp724
g44
atp725
bsg63
Nstp726
Rp727
ag15
(g16
(dp728
g18
g19
(g20
(I0
tp729
g22
tp730
Rp731
(I1
(I1
tp732
g29
I00
(lp733
g45
atp734
bsg63
Nstp735
Rp736
ag15
(g16
(dp737
g18
g19
(g20
(I0
tp738
g22
tp739
Rp740
(I1
(I1
tp741
g29
I00
(lp742
g46
atp743
bsg63
Nstp744
Rp745
ag15
(g16
(dp746
g18
g19
(g20
(I0
tp747
g22
tp748
Rp749
(I1
(I1
tp750
g29
I00
(lp751
g47
atp752
bsg63
Nstp753
Rp754
ag15
(g16
(dp755
g18
g19
(g20
(I0
tp756
g22
tp757
Rp758
(I1
(I1
tp759
g29
I00
(lp760
g48
atp761
bsg63
Nstp762
Rp763
ag15
(g16
(dp764
g18
g19
(g20
(I0
tp765
g22
tp766
Rp767
(I1
(I1
tp768
g29
I00
(lp769
g49
atp770
bsg63
Nstp771
Rp772
ag15
(g16
(dp773
g18
g19
(g20
(I0
tp774
g22
tp775
Rp776
(I1
(I1
tp777
g29
I00
(lp778
g50
atp779
bsg63
Nstp780
Rp781
ag15
(g16
(dp782
g18
g19
(g20
(I0
tp783
g22
tp784
Rp785
(I1
(I1
tp786
g29
I00
(lp787
g51
atp788
bsg63
Nstp789
Rp790
ag15
(g16
(dp791
g18
g19
(g20
(I0
tp792
g22
tp793
Rp794
(I1
(I1
tp795
g29
I00
(lp796
g52
atp797
bsg63
Nstp798
Rp799
ag15
(g16
(dp800
g18
g19
(g20
(I0
tp801
g22
tp802
Rp803
(I1
(I1
tp804
g29
I00
(lp805
g53
atp806
bsg63
Nstp807
Rp808
ag15
(g16
(dp809
g18
g19
(g20
(I0
tp810
g22
tp811
Rp812
(I1
(I1
tp813
g29
I00
(lp814
g54
atp815
bsg63
Nstp816
Rp817
ag15
(g16
(dp818
g18
g19
(g20
(I0
tp819
g22
tp820
Rp821
(I1
(I1
tp822
g29
I00
(lp823
g55
atp824
bsg63
Nstp825
Rp826
ag15
(g16
(dp827
g18
g19
(g20
(I0
tp828
g22
tp829
Rp830
(I1
(I1
tp831
g29
I00
(lp832
g56
atp833
bsg63
Nstp834
Rp835
ag15
(g16
(dp836
g18
g19
(g20
(I0
tp837
g22
tp838
Rp839
(I1
(I1
tp840
g29
I00
(lp841
g57
atp842
bsg63
Nstp843
Rp844
ag15
(g16
(dp845
g18
g19
(g20
(I0
tp846
g22
tp847
Rp848
(I1
(I1
tp849
g29
I00
(lp850
g58
atp851
bsg63
Nstp852
Rp853
ag15
(g16
(dp854
g18
g19
(g20
(I0
tp855
g22
tp856
Rp857
(I1
(I3
tp858
g29
I00
(lp859
g59
ag60
ag61
atp860
bsg63
Nstp861
Rp862
ag15
(g16
(dp863
g18
g19
(g20
(I0
tp864
g22
tp865
Rp866
(I1
(I1
tp867
g29
I00
(lp868
g33
atp869
bsg63
Nstp870
Rp871
ag15
(g16
(dp872
g18
g19
(g20
(I0
tp873
g22
tp874
Rp875
(I1
(I1
tp876
g29
I00
(lp877
g34
atp878
bsg63
Nstp879
Rp880
a(dp881
S'0.14.1'
p882
(dp883
S'axes'
p884
g14
sS'blocks'
p885
(lp886
(dp887
S'mgr_locs'
p888
c__builtin__
slice
p889
(I2
I3
I1
tp890
Rp891
sS'values'
p892
g84
sa(dp893
g888
g889
(I3
I4
I1
tp894
Rp895
sg892
g116
sa(dp896
g888
g889
(I4
I5
I1
tp897
Rp898
sg892
g137
sa(dp899
g888
g889
(I5
I6
I1
tp900
Rp901
sg892
g158
sa(dp902
g888
g889
(I6
I7
I1
tp903
Rp904
sg892
g179
sa(dp905
g888
g889
(I7
I8
I1
tp906
Rp907
sg892
g200
sa(dp908
g888
g889
(I8
I9
I1
tp909
Rp910
sg892
g221
sa(dp911
g888
g889
(I9
I10
I1
tp912
Rp913
sg892
g242
sa(dp914
g888
g889
(I10
I11
I1
tp915
Rp916
sg892
g263
sa(dp917
g888
g889
(I11
I12
I1
tp918
Rp919
sg892
g284
sa(dp920
g888
g889
(I12
I13
I1
tp921
Rp922
sg892
g305
sa(dp923
g888
g889
(I13
I14
I1
tp924
Rp925
sg892
g326
sa(dp926
g888
g889
(I14
I15
I1
tp927
Rp928
sg892
g347
sa(dp929
g888
g889
(I15
I16
I1
tp930
Rp931
sg892
g368
sa(dp932
g888
g889
(I16
I17
I1
tp933
Rp934
sg892
g389
sa(dp935
g888
g889
(I17
I18
I1
tp936
Rp937
sg892
g410
sa(dp938
g888
g889
(I18
I19
I1
tp939
Rp940
sg892
g431
sa(dp941
g888
g889
(I19
I20
I1
tp942
Rp943
sg892
g452
sa(dp944
g888
g889
(I20
I21
I1
tp945
Rp946
sg892
g473
sa(dp947
g888
g889
(I21
I22
I1
tp948
Rp949
sg892
g494
sa(dp950
g888
g889
(I22
I23
I1
tp951
Rp952
sg892
g515
sa(dp953
g888
g889
(I23
I24
I1
tp954
Rp955
sg892
g536
sa(dp956
g888
g889
(I24
I25
I1
tp957
Rp958
sg892
g557
sa(dp959
g888
g889
(I25
I26
I1
tp960
Rp961
sg892
g578
sa(dp962
g888
g889
(I26
I29
I1
tp963
Rp964
sg892
g600
sa(dp965
g888
g889
(I0
I1
I1
tp966
Rp967
sg892
g611
sa(dp968
g888
g889
(I1
I2
I1
tp969
Rp970
sg892
g617
sasstp971
bsb.